target datalayout = "e-m:e-p270:32:32-p271:32:32-p272:64:64-i64:64-i128:128-f80:128-n8:16:32:64-S128"
target triple = "x86_64-pc-linux-gnu"

%"struct.Luau::BytecodeBuilder::StringRef" = type { ptr, i64 }
%"struct.Luau::BytecodeBuilder::TableShape" = type { [32 x i32], i32 }
%"struct.Luau::BytecodeBuilder::ConstantKey" = type { i32, i64, i64 }
%"class.Luau::BytecodeBuilder" = type { %"class.std::vector", i32, i32, i64, %"class.std::vector.0", %"class.std::vector.5", %"class.std::vector.10", %"class.std::vector.0", %"class.std::vector.15", %"class.std::vector.20", i8, [7 x i8], %"class.Luau::DenseHashMap", %"class.Luau::DenseHashMap.25", %"class.Luau::DenseHashMap.28", i32, %"class.std::vector.31", %"class.std::vector.36", %"class.std::vector.41", %"class.std::vector.46", %"class.std::vector.51", %"class.Luau::DenseHashMap.56", %"class.std::vector.59", %"class.std::vector.64", %"class.std::__cxx11::basic_string", ptr, %"class.std::__cxx11::basic_string", i32, %"class.std::vector.72", %"class.std::vector.77", %"class.std::__cxx11::basic_string", { i64, i64 } }
%"class.std::vector" = type { %"struct.std::_Vector_base" }
%"struct.std::_Vector_base" = type { %"struct.std::_Vector_base<Luau::BytecodeBuilder::Function, std::allocator<Luau::BytecodeBuilder::Function>>::_Vector_impl" }
%"struct.std::_Vector_base<Luau::BytecodeBuilder::Function, std::allocator<Luau::BytecodeBuilder::Function>>::_Vector_impl" = type { %"struct.std::_Vector_base<Luau::BytecodeBuilder::Function, std::allocator<Luau::BytecodeBuilder::Function>>::_Vector_impl_data" }
%"struct.std::_Vector_base<Luau::BytecodeBuilder::Function, std::allocator<Luau::BytecodeBuilder::Function>>::_Vector_impl_data" = type { ptr, ptr, ptr }
%"class.std::vector.5" = type { %"struct.std::_Vector_base.6" }
%"struct.std::_Vector_base.6" = type { %"struct.std::_Vector_base<int, std::allocator<int>>::_Vector_impl" }
%"struct.std::_Vector_base<int, std::allocator<int>>::_Vector_impl" = type { %"struct.std::_Vector_base<int, std::allocator<int>>::_Vector_impl_data" }
%"struct.std::_Vector_base<int, std::allocator<int>>::_Vector_impl_data" = type { ptr, ptr, ptr }
%"class.std::vector.10" = type { %"struct.std::_Vector_base.11" }
%"struct.std::_Vector_base.11" = type { %"struct.std::_Vector_base<Luau::BytecodeBuilder::Constant, std::allocator<Luau::BytecodeBuilder::Constant>>::_Vector_impl" }
%"struct.std::_Vector_base<Luau::BytecodeBuilder::Constant, std::allocator<Luau::BytecodeBuilder::Constant>>::_Vector_impl" = type { %"struct.std::_Vector_base<Luau::BytecodeBuilder::Constant, std::allocator<Luau::BytecodeBuilder::Constant>>::_Vector_impl_data" }
%"struct.std::_Vector_base<Luau::BytecodeBuilder::Constant, std::allocator<Luau::BytecodeBuilder::Constant>>::_Vector_impl_data" = type { ptr, ptr, ptr }
%"class.std::vector.0" = type { %"struct.std::_Vector_base.1" }
%"struct.std::_Vector_base.1" = type { %"struct.std::_Vector_base<unsigned int, std::allocator<unsigned int>>::_Vector_impl" }
%"struct.std::_Vector_base<unsigned int, std::allocator<unsigned int>>::_Vector_impl" = type { %"struct.std::_Vector_base<unsigned int, std::allocator<unsigned int>>::_Vector_impl_data" }
%"struct.std::_Vector_base<unsigned int, std::allocator<unsigned int>>::_Vector_impl_data" = type { ptr, ptr, ptr }
%"class.std::vector.15" = type { %"struct.std::_Vector_base.16" }
%"struct.std::_Vector_base.16" = type { %"struct.std::_Vector_base<Luau::BytecodeBuilder::Jump, std::allocator<Luau::BytecodeBuilder::Jump>>::_Vector_impl" }
%"struct.std::_Vector_base<Luau::BytecodeBuilder::Jump, std::allocator<Luau::BytecodeBuilder::Jump>>::_Vector_impl" = type { %"struct.std::_Vector_base<Luau::BytecodeBuilder::Jump, std::allocator<Luau::BytecodeBuilder::Jump>>::_Vector_impl_data" }
%"struct.std::_Vector_base<Luau::BytecodeBuilder::Jump, std::allocator<Luau::BytecodeBuilder::Jump>>::_Vector_impl_data" = type { ptr, ptr, ptr }
%"class.std::vector.20" = type { %"struct.std::_Vector_base.21" }
%"struct.std::_Vector_base.21" = type { %"struct.std::_Vector_base<Luau::BytecodeBuilder::TableShape, std::allocator<Luau::BytecodeBuilder::TableShape>>::_Vector_impl" }
%"struct.std::_Vector_base<Luau::BytecodeBuilder::TableShape, std::allocator<Luau::BytecodeBuilder::TableShape>>::_Vector_impl" = type { %"struct.std::_Vector_base<Luau::BytecodeBuilder::TableShape, std::allocator<Luau::BytecodeBuilder::TableShape>>::_Vector_impl_data" }
%"struct.std::_Vector_base<Luau::BytecodeBuilder::TableShape, std::allocator<Luau::BytecodeBuilder::TableShape>>::_Vector_impl_data" = type { ptr, ptr, ptr }
%"class.Luau::DenseHashMap" = type { %"class.Luau::detail::DenseHashTable" }
%"class.Luau::detail::DenseHashTable" = type <{ ptr, i64, i64, %"struct.Luau::BytecodeBuilder::ConstantKey", [8 x i8] }>
%"class.Luau::DenseHashMap.25" = type { %"class.Luau::detail::DenseHashTable.26" }
%"class.Luau::detail::DenseHashTable.26" = type <{ ptr, i64, i64, %"struct.Luau::BytecodeBuilder::TableShape", [4 x i8] }>
%"class.Luau::DenseHashMap.28" = type { %"class.Luau::detail::DenseHashTable.29" }
%"class.Luau::detail::DenseHashTable.29" = type <{ ptr, i64, i64, i32, [4 x i8] }>
%"class.std::vector.31" = type { %"struct.std::_Vector_base.32" }
%"struct.std::_Vector_base.32" = type { %"struct.std::_Vector_base<Luau::BytecodeBuilder::DebugLocal, std::allocator<Luau::BytecodeBuilder::DebugLocal>>::_Vector_impl" }
%"struct.std::_Vector_base<Luau::BytecodeBuilder::DebugLocal, std::allocator<Luau::BytecodeBuilder::DebugLocal>>::_Vector_impl" = type { %"struct.std::_Vector_base<Luau::BytecodeBuilder::DebugLocal, std::allocator<Luau::BytecodeBuilder::DebugLocal>>::_Vector_impl_data" }
%"struct.std::_Vector_base<Luau::BytecodeBuilder::DebugLocal, std::allocator<Luau::BytecodeBuilder::DebugLocal>>::_Vector_impl_data" = type { ptr, ptr, ptr }
%"class.std::vector.36" = type { %"struct.std::_Vector_base.37" }
%"struct.std::_Vector_base.37" = type { %"struct.std::_Vector_base<Luau::BytecodeBuilder::DebugUpval, std::allocator<Luau::BytecodeBuilder::DebugUpval>>::_Vector_impl" }
%"struct.std::_Vector_base<Luau::BytecodeBuilder::DebugUpval, std::allocator<Luau::BytecodeBuilder::DebugUpval>>::_Vector_impl" = type { %"struct.std::_Vector_base<Luau::BytecodeBuilder::DebugUpval, std::allocator<Luau::BytecodeBuilder::DebugUpval>>::_Vector_impl_data" }
%"struct.std::_Vector_base<Luau::BytecodeBuilder::DebugUpval, std::allocator<Luau::BytecodeBuilder::DebugUpval>>::_Vector_impl_data" = type { ptr, ptr, ptr }
%"class.std::vector.41" = type { %"struct.std::_Vector_base.42" }
%"struct.std::_Vector_base.42" = type { %"struct.std::_Vector_base<Luau::BytecodeBuilder::TypedLocal, std::allocator<Luau::BytecodeBuilder::TypedLocal>>::_Vector_impl" }
%"struct.std::_Vector_base<Luau::BytecodeBuilder::TypedLocal, std::allocator<Luau::BytecodeBuilder::TypedLocal>>::_Vector_impl" = type { %"struct.std::_Vector_base<Luau::BytecodeBuilder::TypedLocal, std::allocator<Luau::BytecodeBuilder::TypedLocal>>::_Vector_impl_data" }
%"struct.std::_Vector_base<Luau::BytecodeBuilder::TypedLocal, std::allocator<Luau::BytecodeBuilder::TypedLocal>>::_Vector_impl_data" = type { ptr, ptr, ptr }
%"class.std::vector.46" = type { %"struct.std::_Vector_base.47" }
%"struct.std::_Vector_base.47" = type { %"struct.std::_Vector_base<Luau::BytecodeBuilder::TypedUpval, std::allocator<Luau::BytecodeBuilder::TypedUpval>>::_Vector_impl" }
%"struct.std::_Vector_base<Luau::BytecodeBuilder::TypedUpval, std::allocator<Luau::BytecodeBuilder::TypedUpval>>::_Vector_impl" = type { %"struct.std::_Vector_base<Luau::BytecodeBuilder::TypedUpval, std::allocator<Luau::BytecodeBuilder::TypedUpval>>::_Vector_impl_data" }
%"struct.std::_Vector_base<Luau::BytecodeBuilder::TypedUpval, std::allocator<Luau::BytecodeBuilder::TypedUpval>>::_Vector_impl_data" = type { ptr, ptr, ptr }
%"class.std::vector.51" = type { %"struct.std::_Vector_base.52" }
%"struct.std::_Vector_base.52" = type { %"struct.std::_Vector_base<Luau::BytecodeBuilder::UserdataType, std::allocator<Luau::BytecodeBuilder::UserdataType>>::_Vector_impl" }
%"struct.std::_Vector_base<Luau::BytecodeBuilder::UserdataType, std::allocator<Luau::BytecodeBuilder::UserdataType>>::_Vector_impl" = type { %"struct.std::_Vector_base<Luau::BytecodeBuilder::UserdataType, std::allocator<Luau::BytecodeBuilder::UserdataType>>::_Vector_impl_data" }
%"struct.std::_Vector_base<Luau::BytecodeBuilder::UserdataType, std::allocator<Luau::BytecodeBuilder::UserdataType>>::_Vector_impl_data" = type { ptr, ptr, ptr }
%"class.Luau::DenseHashMap.56" = type { %"class.Luau::detail::DenseHashTable.57" }
%"class.Luau::detail::DenseHashTable.57" = type <{ ptr, i64, i64, %"struct.Luau::BytecodeBuilder::StringRef", [8 x i8] }>
%"class.std::vector.59" = type { %"struct.std::_Vector_base.60" }
%"struct.std::_Vector_base.60" = type { %"struct.std::_Vector_base<Luau::BytecodeBuilder::StringRef, std::allocator<Luau::BytecodeBuilder::StringRef>>::_Vector_impl" }
%"struct.std::_Vector_base<Luau::BytecodeBuilder::StringRef, std::allocator<Luau::BytecodeBuilder::StringRef>>::_Vector_impl" = type { %"struct.std::_Vector_base<Luau::BytecodeBuilder::StringRef, std::allocator<Luau::BytecodeBuilder::StringRef>>::_Vector_impl_data" }
%"struct.std::_Vector_base<Luau::BytecodeBuilder::StringRef, std::allocator<Luau::BytecodeBuilder::StringRef>>::_Vector_impl_data" = type { ptr, ptr, ptr }
%"class.std::vector.64" = type { %"struct.std::_Vector_base.65" }
%"struct.std::_Vector_base.65" = type { %"struct.std::_Vector_base<std::pair<unsigned int, unsigned int>, std::allocator<std::pair<unsigned int, unsigned int>>>::_Vector_impl" }
%"struct.std::_Vector_base<std::pair<unsigned int, unsigned int>, std::allocator<std::pair<unsigned int, unsigned int>>>::_Vector_impl" = type { %"struct.std::_Vector_base<std::pair<unsigned int, unsigned int>, std::allocator<std::pair<unsigned int, unsigned int>>>::_Vector_impl_data" }
%"struct.std::_Vector_base<std::pair<unsigned int, unsigned int>, std::allocator<std::pair<unsigned int, unsigned int>>>::_Vector_impl_data" = type { ptr, ptr, ptr }
%"class.std::vector.72" = type { %"struct.std::_Vector_base.73" }
%"struct.std::_Vector_base.73" = type { %"struct.std::_Vector_base<std::__cxx11::basic_string<char>, std::allocator<std::__cxx11::basic_string<char>>>::_Vector_impl" }
%"struct.std::_Vector_base<std::__cxx11::basic_string<char>, std::allocator<std::__cxx11::basic_string<char>>>::_Vector_impl" = type { %"struct.std::_Vector_base<std::__cxx11::basic_string<char>, std::allocator<std::__cxx11::basic_string<char>>>::_Vector_impl_data" }
%"struct.std::_Vector_base<std::__cxx11::basic_string<char>, std::allocator<std::__cxx11::basic_string<char>>>::_Vector_impl_data" = type { ptr, ptr, ptr }
%"class.std::vector.77" = type { %"struct.std::_Vector_base.78" }
%"struct.std::_Vector_base.78" = type { %"struct.std::_Vector_base<std::pair<int, std::__cxx11::basic_string<char>>, std::allocator<std::pair<int, std::__cxx11::basic_string<char>>>>::_Vector_impl" }
%"struct.std::_Vector_base<std::pair<int, std::__cxx11::basic_string<char>>, std::allocator<std::pair<int, std::__cxx11::basic_string<char>>>>::_Vector_impl" = type { %"struct.std::_Vector_base<std::pair<int, std::__cxx11::basic_string<char>>, std::allocator<std::pair<int, std::__cxx11::basic_string<char>>>>::_Vector_impl_data" }
%"struct.std::_Vector_base<std::pair<int, std::__cxx11::basic_string<char>>, std::allocator<std::pair<int, std::__cxx11::basic_string<char>>>>::_Vector_impl_data" = type { ptr, ptr, ptr }
%"class.std::__cxx11::basic_string" = type { %"struct.std::__cxx11::basic_string<char>::_Alloc_hider", i64, %union.anon }
%"struct.std::__cxx11::basic_string<char>::_Alloc_hider" = type { ptr }
%union.anon = type { i64, [8 x i8] }
%"struct.Luau::BytecodeBuilder::UserdataType" = type <{ %"class.std::__cxx11::basic_string", i32, i8, [3 x i8] }>

; Function Attrs: noinline noreturn nounwind uwtable
define linkonce_odr hidden void @__clang_call_terminate(ptr noundef %0) #12 comdat {
  %2 = call ptr @__cxa_begin_catch(ptr %0) #19
  call void @_ZSt9terminatev() #20
  unreachable
}

; Function Attrs: mustprogress nounwind uwtable
define available_externally noundef ptr @_ZNKSt7__cxx1112basic_stringIcSt11char_traitsIcESaIcEE7_M_dataEv(ptr noundef nonnull align 8 dereferenceable(32) %0) #0 align 2 {
  %2 = alloca ptr, align 8
  store ptr %0, ptr %2, align 8, !tbaa !179
  %3 = load ptr, ptr %2, align 8
  %4 = getelementptr inbounds nuw %"class.std::__cxx11::basic_string", ptr %3, i32 0, i32 0
  %5 = getelementptr inbounds nuw %"struct.std::__cxx11::basic_string<char>::_Alloc_hider", ptr %4, i32 0, i32 0
  %6 = load ptr, ptr %5, align 8, !tbaa !564
  ret ptr %6
}

; Function Attrs: mustprogress nounwind uwtable
define available_externally noundef ptr @_ZNKSt7__cxx1112basic_stringIcSt11char_traitsIcESaIcEE5c_strEv(ptr noundef nonnull align 8 dereferenceable(32) %0) #0 align 2 personality ptr @__gxx_personality_v0 {
  %2 = alloca ptr, align 8
  store ptr %0, ptr %2, align 8, !tbaa !179
  %3 = load ptr, ptr %2, align 8
  %4 = invoke noundef ptr @_ZNKSt7__cxx1112basic_stringIcSt11char_traitsIcESaIcEE7_M_dataEv(ptr noundef nonnull align 8 dereferenceable(32) %3)
          to label %5 unwind label %6

5:                                                ; preds = %1
  ret ptr %4

6:                                                ; preds = %1
  %7 = landingpad { ptr, i32 }
          catch ptr null
  %8 = extractvalue { ptr, i32 } %7, 0
  call void @__clang_call_terminate(ptr %8) #20
  unreachable
}

; Function Attrs: mustprogress nounwind uwtable
define linkonce_odr dso_local noundef nonnull align 8 dereferenceable(37) ptr @_ZNKSt6vectorIN4Luau15BytecodeBuilder12UserdataTypeESaIS2_EEixEm(ptr noundef nonnull align 8 dereferenceable(24) %0, i64 noundef %1) #0 comdat align 2 {
  %3 = alloca ptr, align 8
  %4 = alloca i64, align 8
  store ptr %0, ptr %3, align 8, !tbaa !171
  store i64 %1, ptr %4, align 8, !tbaa !32
  %5 = load ptr, ptr %3, align 8
  %6 = getelementptr inbounds nuw %"struct.std::_Vector_base.52", ptr %5, i32 0, i32 0
  %7 = getelementptr inbounds nuw %"struct.std::_Vector_base<Luau::BytecodeBuilder::UserdataType, std::allocator<Luau::BytecodeBuilder::UserdataType>>::_Vector_impl_data", ptr %6, i32 0, i32 0
  %8 = load ptr, ptr %7, align 8, !tbaa !206
  %9 = load i64, ptr %4, align 8, !tbaa !32
  %10 = getelementptr inbounds nuw %"struct.Luau::BytecodeBuilder::UserdataType", ptr %8, i64 %9
  ret ptr %10
}

; Function Attrs: mustprogress nounwind uwtable
define linkonce_odr dso_local noundef i64 @_ZNKSt6vectorIN4Luau15BytecodeBuilder12UserdataTypeESaIS2_EE4sizeEv(ptr noundef nonnull align 8 dereferenceable(24) %0) #0 comdat align 2 {
  %2 = alloca ptr, align 8
  store ptr %0, ptr %2, align 8, !tbaa !171
  %3 = load ptr, ptr %2, align 8
  %4 = getelementptr inbounds nuw %"struct.std::_Vector_base.52", ptr %3, i32 0, i32 0
  %5 = getelementptr inbounds nuw %"struct.std::_Vector_base<Luau::BytecodeBuilder::UserdataType, std::allocator<Luau::BytecodeBuilder::UserdataType>>::_Vector_impl_data", ptr %4, i32 0, i32 1
  %6 = load ptr, ptr %5, align 8, !tbaa !207
  %7 = getelementptr inbounds nuw %"struct.std::_Vector_base.52", ptr %3, i32 0, i32 0
  %8 = getelementptr inbounds nuw %"struct.std::_Vector_base<Luau::BytecodeBuilder::UserdataType, std::allocator<Luau::BytecodeBuilder::UserdataType>>::_Vector_impl_data", ptr %7, i32 0, i32 0
  %9 = load ptr, ptr %8, align 8, !tbaa !206
  %10 = ptrtoint ptr %6 to i64
  %11 = ptrtoint ptr %9 to i64
  %12 = sub i64 %10, %11
  %13 = sdiv exact i64 %12, 40
  ret i64 %13
}

; Function Attrs: mustprogress nounwind uwtable
define dso_local noundef ptr @_ZNK4Luau15BytecodeBuilder22tryGetUserdataTypeNameE16LuauBytecodeType(ptr noundef nonnull align 8 dereferenceable(840) %0, i32 noundef %1) #0 align 2 {
  %3 = alloca ptr, align 8
  %4 = alloca ptr, align 8
  %5 = alloca i32, align 4
  %6 = alloca i32, align 4
  %7 = alloca i32, align 4
  store ptr %0, ptr %4, align 8, !tbaa !35
  store i32 %1, ptr %5, align 4, !tbaa !258
  %8 = load ptr, ptr %4, align 8
  call void @llvm.lifetime.start.p0(i64 4, ptr %6) #19
  %9 = load i32, ptr %5, align 4, !tbaa !258
  %10 = and i32 %9, -129
  %11 = sub nsw i32 %10, 64
  store i32 %11, ptr %6, align 4, !tbaa !28
  %12 = load i32, ptr %6, align 4, !tbaa !28
  %13 = zext i32 %12 to i64
  %14 = getelementptr inbounds nuw %"class.Luau::BytecodeBuilder", ptr %8, i32 0, i32 20
  %15 = call noundef i64 @_ZNKSt6vectorIN4Luau15BytecodeBuilder12UserdataTypeESaIS2_EE4sizeEv(ptr noundef nonnull align 8 dereferenceable(24) %14) #19
  %16 = icmp ult i64 %13, %15
  br i1 %16, label %17, label %24

17:                                               ; preds = %2
  %18 = getelementptr inbounds nuw %"class.Luau::BytecodeBuilder", ptr %8, i32 0, i32 20
  %19 = load i32, ptr %6, align 4, !tbaa !28
  %20 = zext i32 %19 to i64
  %21 = call noundef nonnull align 8 dereferenceable(37) ptr @_ZNKSt6vectorIN4Luau15BytecodeBuilder12UserdataTypeESaIS2_EEixEm(ptr noundef nonnull align 8 dereferenceable(24) %18, i64 noundef %20) #19
  %22 = getelementptr inbounds nuw %"struct.Luau::BytecodeBuilder::UserdataType", ptr %21, i32 0, i32 0
  %23 = call noundef ptr @_ZNKSt7__cxx1112basic_stringIcSt11char_traitsIcESaIcEE5c_strEv(ptr noundef nonnull align 8 dereferenceable(32) %22) #19
  store ptr %23, ptr %3, align 8
  store i32 1, ptr %7, align 4
  br label %25

24:                                               ; preds = %2
  store ptr null, ptr %3, align 8
  store i32 1, ptr %7, align 4
  br label %25

25:                                               ; preds = %24, %17
  call void @llvm.lifetime.end.p0(i64 4, ptr %6) #19
  %26 = load ptr, ptr %3, align 8
  ret ptr %26
}