; Function Attrs: mustprogress nofree norecurse nosync nounwind willreturn memory(read, inaccessiblemem: none) uwtable
define dso_local noundef ptr @_ZNK4Luau15BytecodeBuilder22tryGetUserdataTypeNameE16LuauBytecodeType(ptr noundef nonnull readonly align 8 captures(none) dereferenceable(840) %0, i32 noundef %1) local_unnamed_addr #12 align 2 personality ptr @__gxx_personality_v0 {
  %3 = and i32 %1, -129
  %4 = add nsw i32 %3, -64
  %5 = zext i32 %4 to i64
  %6 = getelementptr inbounds nuw i8, ptr %0, i64 544
  %7 = getelementptr inbounds nuw i8, ptr %0, i64 552
  %8 = load ptr, ptr %7, align 8, !tbaa !173
  %9 = load ptr, ptr %6, align 8, !tbaa !172
  %10 = ptrtoint ptr %8 to i64
  %11 = ptrtoint ptr %9 to i64
  %12 = sub i64 %10, %11
  %13 = sdiv exact i64 %12, 40
  %14 = icmp ugt i64 %13, %5
  br i1 %14, label %15, label %18

15:                                               ; preds = %2
  %16 = getelementptr inbounds nuw %"struct.Luau::BytecodeBuilder::UserdataType", ptr %9, i64 %5
  %17 = load ptr, ptr %16, align 8, !tbaa !143
  br label %18

18:                                               ; preds = %2, %15
  %.0 = phi ptr [ %17, %15 ], [ null, %2 ]
  ret ptr %.0
}